; Function Attrs: nounwind uwtable
define noalias noundef ptr @Gia_VtaAbsToFrames(ptr noundef readonly captures(none) %0) local_unnamed_addr #0 {
  %2 = getelementptr i8, ptr %0, i64 8
  %.val = load ptr, ptr %2, align 8, !tbaa !3
  %3 = load i32, ptr %.val, align 4, !tbaa !10
  %4 = tail call noalias dereferenceable_or_null(16) ptr @malloc(i64 noundef 16) #25
  %5 = add i32 %3, -1
  %or.cond.i = icmp ult i32 %5, 7
  %spec.store.select.i = select i1 %or.cond.i, i32 8, i32 %3
  %6 = getelementptr inbounds nuw i8, ptr %4, i64 4
  store i32 0, ptr %6, align 4, !tbaa !11
  store i32 %spec.store.select.i, ptr %4, align 8, !tbaa !13
  %.not.i = icmp eq i32 %spec.store.select.i, 0
  br i1 %.not.i, label %Vec_PtrAlloc.exit, label %7

7:                                                ; preds = %1
  %8 = sext i32 %spec.store.select.i to i64
  %9 = shl nsw i64 %8, 3
  %10 = tail call noalias ptr @malloc(i64 noundef %9) #25
  br label %Vec_PtrAlloc.exit

Vec_PtrAlloc.exit:                                ; preds = %1, %7
  %11 = phi ptr [ %10, %7 ], [ null, %1 ]
  %12 = getelementptr inbounds nuw i8, ptr %4, i64 8
  store ptr %11, ptr %12, align 8, !tbaa !14
  %13 = icmp sgt i32 %3, 0
  br i1 %13, label %.lr.ph33.preheader, label %._crit_edge

.lr.ph33.preheader:                               ; preds = %Vec_PtrAlloc.exit
  %wide.trip.count38 = zext nneg i32 %3 to i64
  br label %.lr.ph33

.lr.ph33:                                         ; preds = %.lr.ph33.preheader, %Vec_PtrPush.exit
  %14 = phi i32 [ %spec.store.select.i, %.lr.ph33.preheader ], [ %81, %Vec_PtrPush.exit ]
  %15 = phi i32 [ 0, %.lr.ph33.preheader ], [ %83, %Vec_PtrPush.exit ]
  %indvars.iv35 = phi i64 [ 0, %.lr.ph33.preheader ], [ %indvars.iv.next36, %Vec_PtrPush.exit ]
  %indvars.iv.next36 = add nuw nsw i64 %indvars.iv35, 1
  %.val22 = load ptr, ptr %2, align 8, !tbaa !3
  %16 = getelementptr inbounds nuw i32, ptr %.val22, i64 %indvars.iv.next36
  %17 = load i32, ptr %16, align 4, !tbaa !10
  %18 = getelementptr inbounds nuw i32, ptr %.val22, i64 %indvars.iv35
  %19 = getelementptr inbounds nuw i8, ptr %18, i64 8
  %20 = load i32, ptr %19, align 4, !tbaa !10
  %21 = sub nsw i32 %20, %17
  %22 = tail call noalias dereferenceable_or_null(16) ptr @malloc(i64 noundef 16) #25
  %23 = add i32 %21, -1
  %or.cond.i25 = icmp ult i32 %23, 15
  %spec.store.select.i26 = select i1 %or.cond.i25, i32 16, i32 %21
  %24 = getelementptr inbounds nuw i8, ptr %22, i64 4
  store i32 0, ptr %24, align 4, !tbaa !15
  store i32 %spec.store.select.i26, ptr %22, align 8, !tbaa !16
  %.not.i27 = icmp eq i32 %spec.store.select.i26, 0
  br i1 %.not.i27, label %Vec_IntAlloc.exit, label %25

25:                                               ; preds = %.lr.ph33
  %26 = sext i32 %spec.store.select.i26 to i64
  %27 = shl nsw i64 %26, 2
  %28 = tail call noalias ptr @malloc(i64 noundef %27) #25
  br label %Vec_IntAlloc.exit

Vec_IntAlloc.exit:                                ; preds = %.lr.ph33, %25
  %29 = phi ptr [ %28, %25 ], [ null, %.lr.ph33 ]
  %30 = getelementptr inbounds nuw i8, ptr %22, i64 8
  store ptr %29, ptr %30, align 8, !tbaa !3
  %31 = icmp slt i32 %17, %20
  br i1 %31, label %.lr.ph.preheader, label %.critedge

.lr.ph.preheader:                                 ; preds = %Vec_IntAlloc.exit
  %32 = sext i32 %17 to i64
  %wide.trip.count = sext i32 %20 to i64
  br label %.lr.ph

.lr.ph:                                           ; preds = %.lr.ph.preheader, %Vec_IntPush.exit
  %33 = phi ptr [ %29, %.lr.ph.preheader ], [ %.pre.i41, %Vec_IntPush.exit ]
  %indvars.iv = phi i64 [ %32, %.lr.ph.preheader ], [ %indvars.iv.next, %Vec_IntPush.exit ]
  %.val24 = load ptr, ptr %2, align 8, !tbaa !3
  %34 = getelementptr inbounds i32, ptr %.val24, i64 %indvars.iv
  %35 = load i32, ptr %34, align 4, !tbaa !10
  %36 = load i32, ptr %24, align 4, !tbaa !15
  %37 = load i32, ptr %22, align 8, !tbaa !16
  %38 = icmp eq i32 %36, %37
  br i1 %38, label %39, label %Vec_IntPush.exit

39:                                               ; preds = %.lr.ph
  %40 = icmp slt i32 %36, 16
  br i1 %40, label %41, label %46

41:                                               ; preds = %39
  %.not9.i.i = icmp eq ptr %33, null
  br i1 %.not9.i.i, label %44, label %42

42:                                               ; preds = %41
  %43 = tail call dereferenceable_or_null(64) ptr @realloc(ptr noundef nonnull %33, i64 noundef 64) #26
  br label %Vec_IntPush.exit.sink.split

44:                                               ; preds = %41
  %45 = tail call noalias dereferenceable_or_null(64) ptr @malloc(i64 noundef 64) #25
  br label %Vec_IntPush.exit.sink.split

46:                                               ; preds = %39
  %47 = shl nuw nsw i32 %36, 1
  %.not9.i9.i = icmp eq ptr %33, null
  %48 = zext nneg i32 %47 to i64
  %49 = shl nuw nsw i64 %48, 2
  br i1 %.not9.i9.i, label %52, label %50

50:                                               ; preds = %46
  %51 = tail call ptr @realloc(ptr noundef nonnull %33, i64 noundef %49) #26
  br label %Vec_IntPush.exit.sink.split

52:                                               ; preds = %46
  %53 = tail call noalias ptr @malloc(i64 noundef %49) #25
  br label %Vec_IntPush.exit.sink.split

Vec_IntPush.exit.sink.split:                      ; preds = %50, %52, %42, %44
  %.sink43 = phi ptr [ %43, %42 ], [ %45, %44 ], [ %51, %50 ], [ %53, %52 ]
  %.sink = phi i32 [ 16, %42 ], [ 16, %44 ], [ %47, %50 ], [ %47, %52 ]
  store ptr %.sink43, ptr %30, align 8, !tbaa !3
  store i32 %.sink, ptr %22, align 8, !tbaa !16
  br label %Vec_IntPush.exit

Vec_IntPush.exit:                                 ; preds = %Vec_IntPush.exit.sink.split, %.lr.ph
  %.pre.i41 = phi ptr [ %33, %.lr.ph ], [ %.sink43, %Vec_IntPush.exit.sink.split ]
  %54 = load i32, ptr %24, align 4, !tbaa !15
  %55 = add nsw i32 %54, 1
  store i32 %55, ptr %24, align 4, !tbaa !15
  %56 = sext i32 %54 to i64
  %57 = getelementptr inbounds i32, ptr %.pre.i41, i64 %56
  store i32 %35, ptr %57, align 4, !tbaa !10
  %indvars.iv.next = add nsw i64 %indvars.iv, 1
  %exitcond.not = icmp eq i64 %indvars.iv.next, %wide.trip.count
  br i1 %exitcond.not, label %.critedge.loopexit, label %.lr.ph, !llvm.loop !17

.critedge.loopexit:                               ; preds = %Vec_IntPush.exit
  %.pre = load i32, ptr %6, align 4, !tbaa !11
  %.pre42 = load i32, ptr %4, align 8, !tbaa !13
  br label %.critedge

.critedge:                                        ; preds = %.critedge.loopexit, %Vec_IntAlloc.exit
  %58 = phi i32 [ %.pre42, %.critedge.loopexit ], [ %14, %Vec_IntAlloc.exit ]
  %59 = phi i32 [ %.pre, %.critedge.loopexit ], [ %15, %Vec_IntAlloc.exit ]
  %60 = icmp eq i32 %59, %58
  br i1 %60, label %61, label %.Vec_PtrGrow.exit11_crit_edge.i

.Vec_PtrGrow.exit11_crit_edge.i:                  ; preds = %.critedge
  %.pre.i29 = load ptr, ptr %12, align 8, !tbaa !14
  br label %Vec_PtrPush.exit

61:                                               ; preds = %.critedge
  %62 = icmp slt i32 %58, 16
  br i1 %62, label %63, label %70

63:                                               ; preds = %61
  %64 = load ptr, ptr %12, align 8, !tbaa !14
  %.not9.i.i30 = icmp eq ptr %64, null
  br i1 %.not9.i.i30, label %67, label %65

65:                                               ; preds = %63
  %66 = tail call dereferenceable_or_null(128) ptr @realloc(ptr noundef nonnull %64, i64 noundef 128) #26
  br label %Vec_PtrGrow.exit.i

67:                                               ; preds = %63
  %68 = tail call noalias dereferenceable_or_null(128) ptr @malloc(i64 noundef 128) #25
  br label %Vec_PtrGrow.exit.i

Vec_PtrGrow.exit.i:                               ; preds = %67, %65
  %69 = phi ptr [ %66, %65 ], [ %68, %67 ]
  store ptr %69, ptr %12, align 8, !tbaa !14
  store i32 16, ptr %4, align 8, !tbaa !13
  br label %Vec_PtrPush.exit

70:                                               ; preds = %61
  %71 = shl nuw nsw i32 %58, 1
  %72 = load ptr, ptr %12, align 8, !tbaa !14
  %.not9.i10.i = icmp eq ptr %72, null
  %73 = zext nneg i32 %71 to i64
  %74 = shl nuw nsw i64 %73, 3
  br i1 %.not9.i10.i, label %77, label %75

75:                                               ; preds = %70
  %76 = tail call ptr @realloc(ptr noundef nonnull %72, i64 noundef %74) #26
  br label %79

77:                                               ; preds = %70
  %78 = tail call noalias ptr @malloc(i64 noundef %74) #25
  br label %79

79:                                               ; preds = %77, %75
  %80 = phi ptr [ %76, %75 ], [ %78, %77 ]
  store ptr %80, ptr %12, align 8, !tbaa !14
  store i32 %71, ptr %4, align 8, !tbaa !13
  br label %Vec_PtrPush.exit

Vec_PtrPush.exit:                                 ; preds = %.Vec_PtrGrow.exit11_crit_edge.i, %Vec_PtrGrow.exit.i, %79
  %81 = phi i32 [ %58, %.Vec_PtrGrow.exit11_crit_edge.i ], [ %71, %79 ], [ 16, %Vec_PtrGrow.exit.i ]
  %82 = phi ptr [ %.pre.i29, %.Vec_PtrGrow.exit11_crit_edge.i ], [ %80, %79 ], [ %69, %Vec_PtrGrow.exit.i ]
  %83 = add nsw i32 %59, 1
  store i32 %83, ptr %6, align 4, !tbaa !11
  %84 = sext i32 %59 to i64
  %85 = getelementptr inbounds ptr, ptr %82, i64 %84
  store ptr %22, ptr %85, align 8, !tbaa !19
  %exitcond39.not = icmp eq i64 %indvars.iv.next36, %wide.trip.count38
  br i1 %exitcond39.not, label %._crit_edge, label %.lr.ph33, !llvm.loop !20

._crit_edge:                                      ; preds = %Vec_PtrPush.exit, %Vec_PtrAlloc.exit
  ret ptr %4
}